target datalayout = "e-m:e-p270:32:32-p271:32:32-p272:64:64-i64:64-i128:128-f80:128-n8:16:32:64-S128"
target triple = "x86_64-pc-linux-gnu"

@plugin_type = dso_local constant [11 x i8] c"auth/munge\00", align 1
@.str.15 = private unnamed_addr constant [42 x i8] c"Rejecting thread config token for user %s\00", align 1
@.str.16 = private unnamed_addr constant [43 x i8] c"%s: %s: applying thread config for user %s\00", align 1
@__func__.auth_p_thread_config = private unnamed_addr constant [21 x i8] c"auth_p_thread_config\00", align 1
@.str.17 = private unnamed_addr constant [56 x i8] c"rejecting thread config for user %s while running as %s\00", align 1

; Function Attrs: nounwind uwtable
define dso_local i32 @auth_p_thread_config(ptr noundef %0, ptr noundef %1) #0 {
  %3 = alloca i32, align 4
  %4 = alloca ptr, align 8
  %5 = alloca ptr, align 8
  %6 = alloca i32, align 4
  %7 = alloca ptr, align 8
  %8 = alloca i32, align 4
  store ptr %0, ptr %4, align 8
  store ptr %1, ptr %5, align 8
  call void @llvm.lifetime.start.p0(i64 4, ptr %6) #9
  store i32 6000, ptr %6, align 4
  call void @llvm.lifetime.start.p0(i64 8, ptr %7) #9
  %9 = load ptr, ptr %4, align 8
  %10 = icmp ne ptr %9, null
  br i1 %10, label %14, label %11

11:                                               ; preds = %2
  %12 = load ptr, ptr %5, align 8
  %13 = icmp ne ptr %12, null
  br i1 %13, label %18, label %14

14:                                               ; preds = %11, %2
  %15 = load ptr, ptr %5, align 8
  %16 = call i32 (ptr, ...) @slurm_error(ptr noundef @.str.15, ptr noundef %15)
  %17 = load i32, ptr %6, align 4
  store i32 %17, ptr %3, align 4
  store i32 1, ptr %8, align 4
  br label %43

18:                                               ; preds = %11
  %19 = call i32 @getuid() #9
  %20 = call ptr @uid_to_string_or_null(i32 noundef %19)
  store ptr %20, ptr %7, align 8
  %21 = load ptr, ptr %5, align 8
  %22 = load ptr, ptr %7, align 8
  %23 = call i32 @slurm_xstrcmp(ptr noundef %21, ptr noundef %22)
  %24 = icmp ne i32 %23, 0
  br i1 %24, label %37, label %25

25:                                               ; preds = %18
  br label %26

26:                                               ; preds = %25
  br label %27

27:                                               ; preds = %26
  %28 = call i32 @slurm_get_log_level()
  %29 = icmp sge i32 %28, 5
  br i1 %29, label %30, label %32

30:                                               ; preds = %27
  %31 = load ptr, ptr %5, align 8
  call void (i32, ptr, ...) @slurm_log_var(i32 noundef 5, ptr noundef @.str.16, ptr noundef @plugin_type, ptr noundef @__func__.auth_p_thread_config, ptr noundef %31)
  br label %32

32:                                               ; preds = %30, %27
  br label %33

33:                                               ; preds = %32
  br label %34

34:                                               ; preds = %33
  br label %35

35:                                               ; preds = %34
  br label %36

36:                                               ; preds = %35
  store i32 0, ptr %6, align 4
  br label %41

37:                                               ; preds = %18
  %38 = load ptr, ptr %5, align 8
  %39 = load ptr, ptr %7, align 8
  %40 = call i32 (ptr, ...) @slurm_error(ptr noundef @.str.17, ptr noundef %38, ptr noundef %39)
  br label %41

41:                                               ; preds = %37, %36
  call void @slurm_xfree(ptr noundef %7)
  %42 = load i32, ptr %6, align 4
  store i32 %42, ptr %3, align 4
  store i32 1, ptr %8, align 4
  br label %43

43:                                               ; preds = %41, %14
  call void @llvm.lifetime.end.p0(i64 8, ptr %7) #9
  call void @llvm.lifetime.end.p0(i64 4, ptr %6) #9
  %44 = load i32, ptr %3, align 4
  ret i32 %44
}