; Function Attrs: nounwind uwtable
define dso_local range(i32 0, 6001) i32 @auth_p_thread_config(ptr noundef readnone captures(address_is_null) %0, ptr noundef %1) local_unnamed_addr #0 {
  %3 = alloca ptr, align 8
  call void @llvm.lifetime.start.p0(i64 8, ptr nonnull %3) #13
  %4 = icmp eq ptr %0, null
  %5 = icmp ne ptr %1, null
  %or.cond = and i1 %4, %5
  br i1 %or.cond, label %8, label %6

6:                                                ; preds = %2
  %7 = tail call i32 (ptr, ...) @slurm_error(ptr noundef nonnull @.str.15, ptr noundef %1) #13
  br label %19

8:                                                ; preds = %2
  %9 = tail call i32 @getuid() #13
  %10 = tail call ptr @uid_to_string_or_null(i32 noundef %9) #13
  store ptr %10, ptr %3, align 8
  %11 = tail call i32 @slurm_xstrcmp(ptr noundef nonnull %1, ptr noundef %10) #13
  %.not = icmp eq i32 %11, 0
  br i1 %.not, label %12, label %16

12:                                               ; preds = %8
  %13 = tail call i32 @slurm_get_log_level() #13
  %14 = icmp sgt i32 %13, 4
  br i1 %14, label %15, label %18

15:                                               ; preds = %12
  tail call void (i32, ptr, ...) @slurm_log_var(i32 noundef 5, ptr noundef nonnull @.str.16, ptr noundef nonnull @plugin_type, ptr noundef nonnull @__func__.auth_p_thread_config, ptr noundef nonnull %1) #13
  br label %18

16:                                               ; preds = %8
  %17 = tail call i32 (ptr, ...) @slurm_error(ptr noundef nonnull @.str.17, ptr noundef nonnull %1, ptr noundef %10) #13
  br label %18

18:                                               ; preds = %12, %15, %16
  %.0 = phi i32 [ 6000, %16 ], [ 0, %15 ], [ 0, %12 ]
  call void @slurm_xfree(ptr noundef nonnull %3) #13
  br label %19

19:                                               ; preds = %18, %6
  %.09 = phi i32 [ %.0, %18 ], [ 6000, %6 ]
  call void @llvm.lifetime.end.p0(i64 8, ptr nonnull %3) #13
  ret i32 %.09
}